; Function Attrs: mustprogress uwtable
define void @_ZN5sim_t5resetEv(ptr noundef nonnull align 8 dereferenceable(2888) %0) unnamed_addr #6 align 2 {
  %2 = getelementptr inbounds i8, ptr %0, i64 1016
  %3 = load i8, ptr %2, align 8
  %4 = and i8 %3, 1
  %.not = icmp eq i8 %4, 0
  br i1 %.not, label %6, label %5

5:                                                ; preds = %1
  tail call void @_ZN5sim_t7set_romEv(ptr noundef nonnull align 8 dereferenceable(2888) %0)
  br label %6

6:                                                ; preds = %5, %1
  ret void
}